; Function Attrs: nounwind uwtable
define dso_local nonnull ptr @repo_get_git_dir(ptr noundef readonly captures(none) %0) local_unnamed_addr #0 {
  %2 = load ptr, ptr %0, align 8, !tbaa !34
  %.not = icmp eq ptr %2, null
  br i1 %.not, label %3, label %4

3:                                                ; preds = %1
  tail call void (ptr, i32, ptr, ...) @BUG_fl(ptr noundef nonnull @.str, i32 noundef 97, ptr noundef nonnull @.str.1) #11
  unreachable

4:                                                ; preds = %1
  ret ptr %2
}